target datalayout = "e-m:e-p270:32:32-p271:32:32-p272:64:64-i64:64-i128:128-f80:128-n8:16:32:64-S128"
target triple = "x86_64-pc-linux-gnu"

%struct.evthread_lock_callbacks = type { i32, i32, ptr, ptr, ptr, ptr }
%struct.event_base = type { ptr, ptr, %struct.event_changelist, ptr, %struct.evsig_info, i32, i32, i32, i32, i32, i32, i32, i32, i32, i32, i32, i32, ptr, i32, %struct.evcallback_list, ptr, i32, i32, %struct.event_signal_map, %struct.event_signal_map, %struct.min_heap, %struct.timeval, %struct.evutil_monotonic_timer, %struct.timeval, i64, i64, ptr, ptr, i32, ptr, i32, %struct.timeval, i32, i32, i32, [2 x i32], %struct.event, ptr, %struct.evutil_weakrand_state, %struct.once_event_list, [2 x %struct.evwatch_list] }
%struct.event_changelist = type { ptr, i32, i32 }
%struct.evsig_info = type { %struct.event, [2 x i32], i32, i32, [65 x ptr], ptr, i32 }
%struct.evcallback_list = type { ptr, ptr }
%struct.event_signal_map = type { ptr, i32 }
%struct.min_heap = type { ptr, i64, i64 }
%struct.evutil_monotonic_timer = type { i32, %struct.timeval, %struct.timeval }
%struct.timeval = type { i64, i64 }
%struct.event = type { %struct.event_callback, %union.anon.0, i32, i16, i16, ptr, %union.anon.2, %struct.timeval }
%struct.event_callback = type { %struct.anon, i16, i8, i8, %union.anon, ptr }
%struct.anon = type { ptr, ptr }
%union.anon = type { ptr }
%union.anon.0 = type { %struct.anon.1 }
%struct.anon.1 = type { ptr, ptr }
%union.anon.2 = type { %struct.anon.3 }
%struct.anon.3 = type { %struct.anon.4, %struct.timeval }
%struct.anon.4 = type { ptr, ptr }
%struct.evutil_weakrand_state = type { i32 }
%struct.once_event_list = type { ptr }
%struct.evwatch_list = type { ptr, ptr }

@evsig_base_lock = internal global ptr null, align 8
@evthread_lock_fns_ = external global %struct.evthread_lock_callbacks, align 8
@evsig_base = internal global ptr null, align 8
@evsig_base_n_signals_added = internal global i32 0, align 4
@evsig_base_fd = internal global i32 -1, align 4
@.str.4 = private unnamed_addr constant [10 x i8] c"sigaction\00", align 1

; Function Attrs: nounwind uwtable
define hidden i32 @evsig_restore_handler_(ptr noundef %0, i32 noundef %1) #0 {
  %3 = alloca i32, align 4
  %4 = alloca ptr, align 8
  %5 = alloca i32, align 4
  %6 = alloca i32, align 4
  %7 = alloca ptr, align 8
  %8 = alloca ptr, align 8
  %9 = alloca i32, align 4
  store ptr %0, ptr %4, align 8
  store i32 %1, ptr %5, align 4
  call void @llvm.lifetime.start.p0(i64 4, ptr %6) #8
  store i32 0, ptr %6, align 4
  call void @llvm.lifetime.start.p0(i64 8, ptr %7) #8
  %10 = load ptr, ptr %4, align 8
  %11 = getelementptr inbounds nuw %struct.event_base, ptr %10, i32 0, i32 4
  store ptr %11, ptr %7, align 8
  call void @llvm.lifetime.start.p0(i64 8, ptr %8) #8
  %12 = load i32, ptr %5, align 4
  %13 = load ptr, ptr %7, align 8
  %14 = getelementptr inbounds nuw %struct.evsig_info, ptr %13, i32 0, i32 6
  %15 = load i32, ptr %14, align 8
  %16 = icmp sge i32 %12, %15
  br i1 %16, label %17, label %18

17:                                               ; preds = %2
  store i32 0, ptr %3, align 4
  store i32 1, ptr %9, align 4
  br label %40

18:                                               ; preds = %2
  %19 = load ptr, ptr %7, align 8
  %20 = getelementptr inbounds nuw %struct.evsig_info, ptr %19, i32 0, i32 5
  %21 = load ptr, ptr %20, align 8
  %22 = load i32, ptr %5, align 4
  %23 = sext i32 %22 to i64
  %24 = getelementptr inbounds ptr, ptr %21, i64 %23
  %25 = load ptr, ptr %24, align 8
  store ptr %25, ptr %8, align 8
  %26 = load ptr, ptr %7, align 8
  %27 = getelementptr inbounds nuw %struct.evsig_info, ptr %26, i32 0, i32 5
  %28 = load ptr, ptr %27, align 8
  %29 = load i32, ptr %5, align 4
  %30 = sext i32 %29 to i64
  %31 = getelementptr inbounds ptr, ptr %28, i64 %30
  store ptr null, ptr %31, align 8
  %32 = load i32, ptr %5, align 4
  %33 = load ptr, ptr %8, align 8
  %34 = call i32 @sigaction(i32 noundef %32, ptr noundef %33, ptr noundef null) #8
  %35 = icmp eq i32 %34, -1
  br i1 %35, label %36, label %37

36:                                               ; preds = %18
  call void (ptr, ...) @event_warn(ptr noundef @.str.4)
  store i32 -1, ptr %6, align 4
  br label %37

37:                                               ; preds = %36, %18
  %38 = load ptr, ptr %8, align 8
  call void @event_mm_free_(ptr noundef %38)
  %39 = load i32, ptr %6, align 4
  store i32 %39, ptr %3, align 4
  store i32 1, ptr %9, align 4
  br label %40

40:                                               ; preds = %37, %17
  call void @llvm.lifetime.end.p0(i64 8, ptr %8) #8
  call void @llvm.lifetime.end.p0(i64 8, ptr %7) #8
  call void @llvm.lifetime.end.p0(i64 4, ptr %6) #8
  %41 = load i32, ptr %3, align 4
  ret i32 %41
}

; Function Attrs: nounwind uwtable
define hidden void @evsig_dealloc_(ptr noundef %0) #0 {
  %2 = alloca ptr, align 8
  %3 = alloca i32, align 4
  store ptr %0, ptr %2, align 8
  call void @llvm.lifetime.start.p0(i64 4, ptr %3) #8
  store i32 0, ptr %3, align 4
  %4 = load ptr, ptr %2, align 8
  %5 = getelementptr inbounds nuw %struct.event_base, ptr %4, i32 0, i32 4
  %6 = getelementptr inbounds nuw %struct.evsig_info, ptr %5, i32 0, i32 2
  %7 = load i32, ptr %6, align 8
  %8 = icmp ne i32 %7, 0
  br i1 %8, label %9, label %17

9:                                                ; preds = %1
  %10 = load ptr, ptr %2, align 8
  %11 = getelementptr inbounds nuw %struct.event_base, ptr %10, i32 0, i32 4
  %12 = getelementptr inbounds nuw %struct.evsig_info, ptr %11, i32 0, i32 0
  %13 = call i32 @event_del(ptr noundef %12)
  %14 = load ptr, ptr %2, align 8
  %15 = getelementptr inbounds nuw %struct.event_base, ptr %14, i32 0, i32 4
  %16 = getelementptr inbounds nuw %struct.evsig_info, ptr %15, i32 0, i32 2
  store i32 0, ptr %16, align 8
  br label %17

17:                                               ; preds = %9, %1
  %18 = load ptr, ptr %2, align 8
  %19 = getelementptr inbounds nuw %struct.event_base, ptr %18, i32 0, i32 4
  %20 = getelementptr inbounds nuw %struct.evsig_info, ptr %19, i32 0, i32 0
  call void @event_debug_unassign(ptr noundef %20)
  store i32 0, ptr %3, align 4
  br label %21

21:                                               ; preds = %46, %17
  %22 = load i32, ptr %3, align 4
  %23 = icmp slt i32 %22, 65
  br i1 %23, label %24, label %49

24:                                               ; preds = %21
  %25 = load i32, ptr %3, align 4
  %26 = load ptr, ptr %2, align 8
  %27 = getelementptr inbounds nuw %struct.event_base, ptr %26, i32 0, i32 4
  %28 = getelementptr inbounds nuw %struct.evsig_info, ptr %27, i32 0, i32 6
  %29 = load i32, ptr %28, align 8
  %30 = icmp slt i32 %25, %29
  br i1 %30, label %31, label %45

31:                                               ; preds = %24
  %32 = load ptr, ptr %2, align 8
  %33 = getelementptr inbounds nuw %struct.event_base, ptr %32, i32 0, i32 4
  %34 = getelementptr inbounds nuw %struct.evsig_info, ptr %33, i32 0, i32 5
  %35 = load ptr, ptr %34, align 8
  %36 = load i32, ptr %3, align 4
  %37 = sext i32 %36 to i64
  %38 = getelementptr inbounds ptr, ptr %35, i64 %37
  %39 = load ptr, ptr %38, align 8
  %40 = icmp ne ptr %39, null
  br i1 %40, label %41, label %45

41:                                               ; preds = %31
  %42 = load ptr, ptr %2, align 8
  %43 = load i32, ptr %3, align 4
  %44 = call i32 @evsig_restore_handler_(ptr noundef %42, i32 noundef %43)
  br label %45

45:                                               ; preds = %41, %31, %24
  br label %46

46:                                               ; preds = %45
  %47 = load i32, ptr %3, align 4
  %48 = add nsw i32 %47, 1
  store i32 %48, ptr %3, align 4
  br label %21, !llvm.loop !6

49:                                               ; preds = %21
  br label %50

50:                                               ; preds = %49
  %51 = load ptr, ptr @evsig_base_lock, align 8
  %52 = icmp ne ptr %51, null
  br i1 %52, label %53, label %57

53:                                               ; preds = %50
  %54 = load ptr, ptr getelementptr inbounds nuw (%struct.evthread_lock_callbacks, ptr @evthread_lock_fns_, i32 0, i32 4), align 8
  %55 = load ptr, ptr @evsig_base_lock, align 8
  %56 = call i32 %54(i32 noundef 0, ptr noundef %55)
  br label %57

57:                                               ; preds = %53, %50
  br label %58

58:                                               ; preds = %57
  br label %59

59:                                               ; preds = %58
  %60 = load ptr, ptr %2, align 8
  %61 = load ptr, ptr @evsig_base, align 8
  %62 = icmp eq ptr %60, %61
  br i1 %62, label %63, label %64

63:                                               ; preds = %59
  store ptr null, ptr @evsig_base, align 8
  store i32 0, ptr @evsig_base_n_signals_added, align 4
  store i32 -1, ptr @evsig_base_fd, align 4
  br label %64

64:                                               ; preds = %63, %59
  br label %65

65:                                               ; preds = %64
  %66 = load ptr, ptr @evsig_base_lock, align 8
  %67 = icmp ne ptr %66, null
  br i1 %67, label %68, label %72

68:                                               ; preds = %65
  %69 = load ptr, ptr getelementptr inbounds nuw (%struct.evthread_lock_callbacks, ptr @evthread_lock_fns_, i32 0, i32 5), align 8
  %70 = load ptr, ptr @evsig_base_lock, align 8
  %71 = call i32 %69(i32 noundef 0, ptr noundef %70)
  br label %72

72:                                               ; preds = %68, %65
  br label %73

73:                                               ; preds = %72
  br label %74

74:                                               ; preds = %73
  %75 = load ptr, ptr %2, align 8
  %76 = getelementptr inbounds nuw %struct.event_base, ptr %75, i32 0, i32 4
  %77 = getelementptr inbounds nuw %struct.evsig_info, ptr %76, i32 0, i32 1
  %78 = getelementptr inbounds [2 x i32], ptr %77, i64 0, i64 0
  %79 = load i32, ptr %78, align 8
  %80 = icmp ne i32 %79, -1
  br i1 %80, label %81, label %92

81:                                               ; preds = %74
  %82 = load ptr, ptr %2, align 8
  %83 = getelementptr inbounds nuw %struct.event_base, ptr %82, i32 0, i32 4
  %84 = getelementptr inbounds nuw %struct.evsig_info, ptr %83, i32 0, i32 1
  %85 = getelementptr inbounds [2 x i32], ptr %84, i64 0, i64 0
  %86 = load i32, ptr %85, align 8
  %87 = call i32 @evutil_closesocket(i32 noundef %86)
  %88 = load ptr, ptr %2, align 8
  %89 = getelementptr inbounds nuw %struct.event_base, ptr %88, i32 0, i32 4
  %90 = getelementptr inbounds nuw %struct.evsig_info, ptr %89, i32 0, i32 1
  %91 = getelementptr inbounds [2 x i32], ptr %90, i64 0, i64 0
  store i32 -1, ptr %91, align 8
  br label %92

92:                                               ; preds = %81, %74
  %93 = load ptr, ptr %2, align 8
  %94 = getelementptr inbounds nuw %struct.event_base, ptr %93, i32 0, i32 4
  %95 = getelementptr inbounds nuw %struct.evsig_info, ptr %94, i32 0, i32 1
  %96 = getelementptr inbounds [2 x i32], ptr %95, i64 0, i64 1
  %97 = load i32, ptr %96, align 4
  %98 = icmp ne i32 %97, -1
  br i1 %98, label %99, label %110

99:                                               ; preds = %92
  %100 = load ptr, ptr %2, align 8
  %101 = getelementptr inbounds nuw %struct.event_base, ptr %100, i32 0, i32 4
  %102 = getelementptr inbounds nuw %struct.evsig_info, ptr %101, i32 0, i32 1
  %103 = getelementptr inbounds [2 x i32], ptr %102, i64 0, i64 1
  %104 = load i32, ptr %103, align 4
  %105 = call i32 @evutil_closesocket(i32 noundef %104)
  %106 = load ptr, ptr %2, align 8
  %107 = getelementptr inbounds nuw %struct.event_base, ptr %106, i32 0, i32 4
  %108 = getelementptr inbounds nuw %struct.evsig_info, ptr %107, i32 0, i32 1
  %109 = getelementptr inbounds [2 x i32], ptr %108, i64 0, i64 1
  store i32 -1, ptr %109, align 4
  br label %110

110:                                              ; preds = %99, %92
  %111 = load ptr, ptr %2, align 8
  %112 = getelementptr inbounds nuw %struct.event_base, ptr %111, i32 0, i32 4
  %113 = getelementptr inbounds nuw %struct.evsig_info, ptr %112, i32 0, i32 6
  store i32 0, ptr %113, align 8
  %114 = load ptr, ptr %2, align 8
  %115 = getelementptr inbounds nuw %struct.event_base, ptr %114, i32 0, i32 4
  %116 = getelementptr inbounds nuw %struct.evsig_info, ptr %115, i32 0, i32 5
  %117 = load ptr, ptr %116, align 8
  %118 = icmp ne ptr %117, null
  br i1 %118, label %119, label %127

119:                                              ; preds = %110
  %120 = load ptr, ptr %2, align 8
  %121 = getelementptr inbounds nuw %struct.event_base, ptr %120, i32 0, i32 4
  %122 = getelementptr inbounds nuw %struct.evsig_info, ptr %121, i32 0, i32 5
  %123 = load ptr, ptr %122, align 8
  call void @event_mm_free_(ptr noundef %123)
  %124 = load ptr, ptr %2, align 8
  %125 = getelementptr inbounds nuw %struct.event_base, ptr %124, i32 0, i32 4
  %126 = getelementptr inbounds nuw %struct.evsig_info, ptr %125, i32 0, i32 5
  store ptr null, ptr %126, align 8
  br label %127

127:                                              ; preds = %119, %110
  call void @llvm.lifetime.end.p0(i64 4, ptr %3) #8
  ret void
}