; Function Attrs: nounwind uwtable
define hidden void @evsig_dealloc_(ptr noundef %0) local_unnamed_addr #0 {
  %2 = getelementptr inbounds nuw i8, ptr %0, i64 40
  %3 = getelementptr inbounds nuw i8, ptr %0, i64 168
  %4 = load i32, ptr %3, align 8
  %.not = icmp eq i32 %4, 0
  br i1 %.not, label %7, label %5

5:                                                ; preds = %1
  %6 = tail call i32 @event_del(ptr noundef nonnull %2) #8
  store i32 0, ptr %3, align 8
  br label %7

7:                                                ; preds = %5, %1
  tail call void @event_debug_unassign(ptr noundef nonnull %2) #8
  %8 = getelementptr inbounds nuw i8, ptr %0, i64 704
  %9 = getelementptr inbounds nuw i8, ptr %0, i64 696
  br label %10

10:                                               ; preds = %7, %23
  %indvars.iv = phi i64 [ 0, %7 ], [ %indvars.iv.next, %23 ]
  %11 = load i32, ptr %8, align 8
  %12 = sext i32 %11 to i64
  %13 = icmp slt i64 %indvars.iv, %12
  br i1 %13, label %14, label %23

14:                                               ; preds = %10
  %15 = load ptr, ptr %9, align 8
  %16 = getelementptr inbounds nuw ptr, ptr %15, i64 %indvars.iv
  %17 = load ptr, ptr %16, align 8
  %.not32 = icmp eq ptr %17, null
  br i1 %.not32, label %23, label %18

18:                                               ; preds = %14
  store ptr null, ptr %16, align 8
  %19 = trunc nuw nsw i64 %indvars.iv to i32
  %20 = tail call i32 @sigaction(i32 noundef %19, ptr noundef nonnull %17, ptr noundef null) #8
  %21 = icmp eq i32 %20, -1
  br i1 %21, label %22, label %evsig_restore_handler_.exit

22:                                               ; preds = %18
  tail call void (ptr, ...) @event_warn(ptr noundef nonnull @.str.4) #8
  br label %evsig_restore_handler_.exit

evsig_restore_handler_.exit:                      ; preds = %18, %22
  tail call void @event_mm_free_(ptr noundef nonnull %17) #8
  br label %23

23:                                               ; preds = %10, %14, %evsig_restore_handler_.exit
  %indvars.iv.next = add nuw nsw i64 %indvars.iv, 1
  %exitcond.not = icmp eq i64 %indvars.iv.next, 65
  br i1 %exitcond.not, label %24, label %10, !llvm.loop !6

24:                                               ; preds = %23
  %25 = load ptr, ptr @evsig_base_lock, align 8
  %.not27 = icmp eq ptr %25, null
  br i1 %.not27, label %29, label %26

26:                                               ; preds = %24
  %27 = load ptr, ptr getelementptr inbounds nuw (i8, ptr @evthread_lock_fns_, i64 24), align 8
  %28 = tail call i32 %27(i32 noundef 0, ptr noundef nonnull %25) #8
  br label %29

29:                                               ; preds = %26, %24
  %30 = load ptr, ptr @evsig_base, align 8
  %31 = icmp eq ptr %0, %30
  br i1 %31, label %32, label %33

32:                                               ; preds = %29
  store ptr null, ptr @evsig_base, align 8
  store i32 0, ptr @evsig_base_n_signals_added, align 4
  store i32 -1, ptr @evsig_base_fd, align 4
  br label %33

33:                                               ; preds = %29, %32
  %34 = load ptr, ptr @evsig_base_lock, align 8
  %.not28 = icmp eq ptr %34, null
  br i1 %.not28, label %38, label %35

35:                                               ; preds = %33
  %36 = load ptr, ptr getelementptr inbounds nuw (i8, ptr @evthread_lock_fns_, i64 32), align 8
  %37 = tail call i32 %36(i32 noundef 0, ptr noundef nonnull %34) #8
  br label %38

38:                                               ; preds = %35, %33
  %39 = getelementptr inbounds nuw i8, ptr %0, i64 160
  %40 = load i32, ptr %39, align 8
  %.not29 = icmp eq i32 %40, -1
  br i1 %.not29, label %43, label %41

41:                                               ; preds = %38
  %42 = tail call i32 @evutil_closesocket(i32 noundef %40) #8
  store i32 -1, ptr %39, align 8
  br label %43

43:                                               ; preds = %41, %38
  %44 = getelementptr inbounds nuw i8, ptr %0, i64 164
  %45 = load i32, ptr %44, align 4
  %.not30 = icmp eq i32 %45, -1
  br i1 %.not30, label %48, label %46

46:                                               ; preds = %43
  %47 = tail call i32 @evutil_closesocket(i32 noundef %45) #8
  store i32 -1, ptr %44, align 4
  br label %48

48:                                               ; preds = %46, %43
  store i32 0, ptr %8, align 8
  %49 = load ptr, ptr %9, align 8
  %.not31 = icmp eq ptr %49, null
  br i1 %.not31, label %51, label %50

50:                                               ; preds = %48
  tail call void @event_mm_free_(ptr noundef nonnull %49) #8
  store ptr null, ptr %9, align 8
  br label %51

51:                                               ; preds = %50, %48
  ret void
}